; Function Attrs: nounwind uwtable
define ptr @l_List_getLast_x21___rarg(ptr noundef %0, ptr noundef %1) #0 {
  %3 = ptrtoint ptr %1 to i64
  %4 = and i64 %3, 1
  %.not.i24 = icmp eq i64 %4, 0
  br i1 %.not.i24, label %8, label %5

5:                                                ; preds = %2
  %6 = lshr i64 %3, 1
  %7 = trunc i64 %6 to i32
  br label %lean_obj_tag.exit

8:                                                ; preds = %2
  %9 = getelementptr i8, ptr %1, i64 4
  %.val.i = load i32, ptr %9, align 4
  %10 = lshr i32 %.val.i, 24
  br label %lean_obj_tag.exit

lean_obj_tag.exit:                                ; preds = %5, %8
  %.0.i = phi i32 [ %7, %5 ], [ %10, %8 ]
  %11 = icmp eq i32 %.0.i, 0
  br i1 %11, label %12, label %15

12:                                               ; preds = %lean_obj_tag.exit
  %13 = load ptr, ptr @l_List_getLast_x21___rarg___closed__3, align 8, !tbaa !10
  %14 = tail call ptr @l_panic___rarg(ptr noundef %0, ptr noundef %13) #4
  br label %63

15:                                               ; preds = %lean_obj_tag.exit
  %16 = ptrtoint ptr %0 to i64
  %17 = and i64 %16, 1
  %.not = icmp eq i64 %17, 0
  br i1 %.not, label %18, label %lean_dec.exit20

18:                                               ; preds = %15
  %19 = load i32, ptr %0, align 4, !tbaa !4
  %20 = icmp sgt i32 %19, 1
  br i1 %20, label %21, label %23, !prof !9

21:                                               ; preds = %18
  %22 = add nsw i32 %19, -1
  store i32 %22, ptr %0, align 4, !tbaa !4
  br label %lean_dec.exit20

23:                                               ; preds = %18
  %.not.i = icmp eq i32 %19, 0
  br i1 %.not.i, label %lean_dec.exit20, label %24

24:                                               ; preds = %23
  tail call void @lean_dec_ref_cold(ptr noundef nonnull %0) #4
  br label %lean_dec.exit20

lean_dec.exit20:                                  ; preds = %24, %23, %21, %15
  %.val = load i32, ptr %1, align 4, !tbaa !4
  %25 = icmp eq i32 %.val, 1
  br i1 %25, label %26, label %28

26:                                               ; preds = %lean_dec.exit20
  %27 = tail call ptr @l_List_getLast___rarg(ptr noundef nonnull %1, ptr noundef nonnull inttoptr (i64 1 to ptr)) #4
  br label %63

28:                                               ; preds = %lean_dec.exit20
  %29 = getelementptr inbounds nuw i8, ptr %1, i64 8
  %30 = load ptr, ptr %29, align 8, !tbaa !10
  %31 = getelementptr inbounds nuw i8, ptr %1, i64 16
  %32 = load ptr, ptr %31, align 8, !tbaa !10
  %33 = ptrtoint ptr %32 to i64
  %34 = and i64 %33, 1
  %.not30 = icmp eq i64 %34, 0
  br i1 %.not30, label %35, label %lean_inc.exit21

35:                                               ; preds = %28
  %.val.i25 = load i32, ptr %32, align 4, !tbaa !4
  %36 = icmp sgt i32 %.val.i25, 0
  br i1 %36, label %37, label %39, !prof !9

37:                                               ; preds = %35
  %38 = add nuw i32 %.val.i25, 1
  store i32 %38, ptr %32, align 4, !tbaa !4
  br label %lean_inc.exit21

39:                                               ; preds = %35
  %.not.i26 = icmp eq i32 %.val.i25, 0
  br i1 %.not.i26, label %lean_inc.exit21, label %40

40:                                               ; preds = %39
  tail call void @lean_inc_ref_cold(ptr noundef nonnull %32) #4
  br label %lean_inc.exit21

lean_inc.exit21:                                  ; preds = %40, %39, %37, %28
  %41 = ptrtoint ptr %30 to i64
  %42 = and i64 %41, 1
  %.not31 = icmp eq i64 %42, 0
  br i1 %.not31, label %43, label %lean_inc.exit

43:                                               ; preds = %lean_inc.exit21
  %.val.i27 = load i32, ptr %30, align 4, !tbaa !4
  %44 = icmp sgt i32 %.val.i27, 0
  br i1 %44, label %45, label %47, !prof !9

45:                                               ; preds = %43
  %46 = add nuw i32 %.val.i27, 1
  store i32 %46, ptr %30, align 4, !tbaa !4
  br label %lean_inc.exit

47:                                               ; preds = %43
  %.not.i28 = icmp eq i32 %.val.i27, 0
  br i1 %.not.i28, label %lean_inc.exit, label %48

48:                                               ; preds = %47
  tail call void @lean_inc_ref_cold(ptr noundef nonnull %30) #4
  br label %lean_inc.exit

lean_inc.exit:                                    ; preds = %48, %47, %45, %lean_inc.exit21
  br i1 %.not.i24, label %49, label %lean_dec.exit

49:                                               ; preds = %lean_inc.exit
  %50 = load i32, ptr %1, align 4, !tbaa !4
  %51 = icmp sgt i32 %50, 1
  br i1 %51, label %52, label %54, !prof !9

52:                                               ; preds = %49
  %53 = add nsw i32 %50, -1
  store i32 %53, ptr %1, align 4, !tbaa !4
  br label %lean_dec.exit

54:                                               ; preds = %49
  %.not.i22 = icmp eq i32 %50, 0
  br i1 %.not.i22, label %lean_dec.exit, label %55

55:                                               ; preds = %54
  tail call void @lean_dec_ref_cold(ptr noundef nonnull %1) #4
  br label %lean_dec.exit

lean_dec.exit:                                    ; preds = %55, %54, %52, %lean_inc.exit
  tail call void @lean_inc_heartbeat() #4
  %56 = tail call noalias ptr @mi_malloc_small(i64 noundef 24) #4
  %57 = icmp eq ptr %56, null
  br i1 %57, label %58, label %lean_alloc_ctor.exit

58:                                               ; preds = %lean_dec.exit
  tail call void @lean_internal_panic_out_of_memory() #5
  unreachable

lean_alloc_ctor.exit:                             ; preds = %lean_dec.exit
  %59 = getelementptr inbounds nuw i8, ptr %56, i64 4
  store i32 1, ptr %56, align 4, !tbaa !4
  store i32 16908312, ptr %59, align 4
  %60 = getelementptr inbounds nuw i8, ptr %56, i64 8
  store ptr %30, ptr %60, align 8, !tbaa !10
  %61 = getelementptr inbounds nuw i8, ptr %56, i64 16
  store ptr %32, ptr %61, align 8, !tbaa !10
  %62 = tail call ptr @l_List_getLast___rarg(ptr noundef nonnull %56, ptr noundef nonnull inttoptr (i64 1 to ptr)) #4
  br label %63

63:                                               ; preds = %26, %lean_alloc_ctor.exit, %12
  %.0 = phi ptr [ %14, %12 ], [ %27, %26 ], [ %62, %lean_alloc_ctor.exit ]
  ret ptr %.0
}